target datalayout = "e-m:e-p270:32:32-p271:32:32-p272:64:64-i64:64-i128:128-f80:128-n8:16:32:64-S128"
target triple = "x86_64-pc-linux-gnu"

%struct.DdManager = type { %struct.DdNode, ptr, ptr, ptr, ptr, ptr, ptr, ptr, i32, i32, double, double, double, i32, i32, i32, i32, i32, i32, ptr, ptr, %struct.DdSubtable, i32, i32, i32, i32, i32, i32, i32, double, i32, i32, i32, ptr, i64, double, i32, ptr, ptr, ptr, ptr, ptr, ptr, ptr, i32, ptr, ptr, ptr, ptr, ptr, ptr, i32, i32, i32, double, i32, i32, i32, i32, double, double, i32, i32, i32, i32, i32, i32, i32, i32, i32, ptr, ptr, i32, i32, i32, i32, i32, i32, ptr, ptr, ptr, ptr, ptr, ptr, ptr, ptr, i32, i64, i64, i64, i32, i64, i64, double, double, double, double, double, double, i32, ptr, ptr, i64 }
%struct.DdNode = type { i32, i32, ptr, %union.anon, i64 }
%union.anon = type { %struct.DdChildren }
%struct.DdChildren = type { ptr, ptr }
%struct.DdSubtable = type { ptr, i32, i32, i32, i32, i32, i32, i32, i32, i32, i32, i32 }

; Function Attrs: nounwind uwtable
define ptr @Extra_CollectNodes(ptr noundef %0) #0 {
  %2 = alloca ptr, align 8
  %3 = alloca ptr, align 8
  store ptr %0, ptr %2, align 8, !tbaa !28
  call void @llvm.lifetime.start.p0(i64 8, ptr %3) #6
  %4 = call ptr @st__init_table(ptr noundef @st__ptrcmp, ptr noundef @st__ptrhash)
  store ptr %4, ptr %3, align 8, !tbaa !41
  %5 = load ptr, ptr %2, align 8, !tbaa !28
  %6 = load ptr, ptr %3, align 8, !tbaa !41
  call void @extraCollectNodes(ptr noundef %5, ptr noundef %6)
  %7 = load ptr, ptr %3, align 8, !tbaa !41
  call void @llvm.lifetime.end.p0(i64 8, ptr %3) #6
  ret ptr %7
}

; Function Attrs: nounwind uwtable
define void @extraProfileUpdateTopLevel(ptr noundef %0, i32 noundef %1, ptr noundef %2) #0 {
  %4 = alloca ptr, align 8
  %5 = alloca i32, align 4
  %6 = alloca ptr, align 8
  %7 = alloca ptr, align 8
  store ptr %0, ptr %4, align 8, !tbaa !41
  store i32 %1, ptr %5, align 4, !tbaa !10
  store ptr %2, ptr %6, align 8, !tbaa !28
  call void @llvm.lifetime.start.p0(i64 8, ptr %7) #6
  %8 = load ptr, ptr %4, align 8, !tbaa !41
  %9 = load ptr, ptr %6, align 8, !tbaa !28
  %10 = call i32 @st__find_or_add(ptr noundef %8, ptr noundef %9, ptr noundef %7)
  %11 = icmp ne i32 %10, 0
  br i1 %11, label %12, label %21

12:                                               ; preds = %3
  %13 = load ptr, ptr %7, align 8, !tbaa !31
  %14 = load i32, ptr %13, align 4, !tbaa !10
  %15 = load i32, ptr %5, align 4, !tbaa !10
  %16 = icmp sgt i32 %14, %15
  br i1 %16, label %17, label %20

17:                                               ; preds = %12
  %18 = load i32, ptr %5, align 4, !tbaa !10
  %19 = load ptr, ptr %7, align 8, !tbaa !31
  store i32 %18, ptr %19, align 4, !tbaa !10
  br label %20

20:                                               ; preds = %17, %12
  br label %24

21:                                               ; preds = %3
  %22 = load i32, ptr %5, align 4, !tbaa !10
  %23 = load ptr, ptr %7, align 8, !tbaa !31
  store i32 %22, ptr %23, align 4, !tbaa !10
  br label %24

24:                                               ; preds = %21, %20
  call void @llvm.lifetime.end.p0(i64 8, ptr %7) #6
  ret void
}

; Function Attrs: nounwind uwtable
define i32 @Extra_ProfileWidth(ptr noundef %0, ptr noundef %1, ptr noundef %2, i32 noundef %3) #0 {
  %5 = alloca ptr, align 8
  %6 = alloca ptr, align 8
  %7 = alloca ptr, align 8
  %8 = alloca i32, align 4
  %9 = alloca ptr, align 8
  %10 = alloca ptr, align 8
  %11 = alloca ptr, align 8
  %12 = alloca ptr, align 8
  %13 = alloca ptr, align 8
  %14 = alloca i32, align 4
  %15 = alloca i32, align 4
  %16 = alloca i32, align 4
  %17 = alloca i32, align 4
  %18 = alloca i32, align 4
  store ptr %0, ptr %5, align 8, !tbaa !3
  store ptr %1, ptr %6, align 8, !tbaa !28
  store ptr %2, ptr %7, align 8, !tbaa !31
  store i32 %3, ptr %8, align 4, !tbaa !10
  call void @llvm.lifetime.start.p0(i64 8, ptr %9) #6
  call void @llvm.lifetime.start.p0(i64 8, ptr %10) #6
  call void @llvm.lifetime.start.p0(i64 8, ptr %11) #6
  call void @llvm.lifetime.start.p0(i64 8, ptr %12) #6
  call void @llvm.lifetime.start.p0(i64 8, ptr %13) #6
  call void @llvm.lifetime.start.p0(i64 4, ptr %14) #6
  call void @llvm.lifetime.start.p0(i64 4, ptr %15) #6
  call void @llvm.lifetime.start.p0(i64 4, ptr %16) #6
  call void @llvm.lifetime.start.p0(i64 4, ptr %17) #6
  call void @llvm.lifetime.start.p0(i64 4, ptr %18) #6
  %19 = call ptr @st__init_table(ptr noundef @st__ptrcmp, ptr noundef @st__ptrhash)
  store ptr %19, ptr %10, align 8, !tbaa !41
  %20 = load ptr, ptr %10, align 8, !tbaa !41
  %21 = load ptr, ptr %6, align 8, !tbaa !28
  call void @extraProfileUpdateTopLevel(ptr noundef %20, i32 noundef 0, ptr noundef %21)
  %22 = load ptr, ptr %6, align 8, !tbaa !28
  %23 = call ptr @Extra_CollectNodes(ptr noundef %22)
  store ptr %23, ptr %11, align 8, !tbaa !41
  %24 = load ptr, ptr %11, align 8, !tbaa !41
  %25 = call ptr @st__init_gen(ptr noundef %24)
  store ptr %25, ptr %9, align 8, !tbaa !43
  br label %26

26:                                               ; preds = %44, %43, %4
  %27 = load ptr, ptr %9, align 8, !tbaa !43
  %28 = call i32 @st__gen(ptr noundef %27, ptr noundef %12, ptr noundef null)
  %29 = icmp ne i32 %28, 0
  br i1 %29, label %32, label %30

30:                                               ; preds = %26
  %31 = load ptr, ptr %9, align 8, !tbaa !43
  call void @st__free_gen(ptr noundef %31)
  br label %32

32:                                               ; preds = %30, %26
  %33 = phi i1 [ true, %26 ], [ false, %30 ]
  br i1 %33, label %34, label %75

34:                                               ; preds = %32
  %35 = load ptr, ptr %12, align 8, !tbaa !28
  %36 = ptrtoint ptr %35 to i64
  %37 = and i64 %36, -2
  %38 = inttoptr i64 %37 to ptr
  store ptr %38, ptr %13, align 8, !tbaa !28
  %39 = load ptr, ptr %13, align 8, !tbaa !28
  %40 = getelementptr inbounds nuw %struct.DdNode, ptr %39, i32 0, i32 0
  %41 = load i32, ptr %40, align 8, !tbaa !33
  %42 = icmp eq i32 %41, 2147483647
  br i1 %42, label %43, label %44

43:                                               ; preds = %34
  br label %26, !llvm.loop !62

44:                                               ; preds = %34
  %45 = load ptr, ptr %10, align 8, !tbaa !41
  %46 = load ptr, ptr %5, align 8, !tbaa !3
  %47 = getelementptr inbounds nuw %struct.DdManager, ptr %46, i32 0, i32 37
  %48 = load ptr, ptr %47, align 8, !tbaa !56
  %49 = load ptr, ptr %12, align 8, !tbaa !28
  %50 = getelementptr inbounds nuw %struct.DdNode, ptr %49, i32 0, i32 0
  %51 = load i32, ptr %50, align 8, !tbaa !33
  %52 = zext i32 %51 to i64
  %53 = getelementptr inbounds nuw i32, ptr %48, i64 %52
  %54 = load i32, ptr %53, align 4, !tbaa !10
  %55 = add nsw i32 %54, 1
  %56 = load ptr, ptr %13, align 8, !tbaa !28
  %57 = getelementptr inbounds nuw %struct.DdNode, ptr %56, i32 0, i32 3
  %58 = getelementptr inbounds nuw %struct.DdChildren, ptr %57, i32 0, i32 1
  %59 = load ptr, ptr %58, align 8, !tbaa !39
  call void @extraProfileUpdateTopLevel(ptr noundef %45, i32 noundef %55, ptr noundef %59)
  %60 = load ptr, ptr %10, align 8, !tbaa !41
  %61 = load ptr, ptr %5, align 8, !tbaa !3
  %62 = getelementptr inbounds nuw %struct.DdManager, ptr %61, i32 0, i32 37
  %63 = load ptr, ptr %62, align 8, !tbaa !56
  %64 = load ptr, ptr %12, align 8, !tbaa !28
  %65 = getelementptr inbounds nuw %struct.DdNode, ptr %64, i32 0, i32 0
  %66 = load i32, ptr %65, align 8, !tbaa !33
  %67 = zext i32 %66 to i64
  %68 = getelementptr inbounds nuw i32, ptr %63, i64 %67
  %69 = load i32, ptr %68, align 4, !tbaa !10
  %70 = add nsw i32 %69, 1
  %71 = load ptr, ptr %13, align 8, !tbaa !28
  %72 = getelementptr inbounds nuw %struct.DdNode, ptr %71, i32 0, i32 3
  %73 = getelementptr inbounds nuw %struct.DdChildren, ptr %72, i32 0, i32 0
  %74 = load ptr, ptr %73, align 8, !tbaa !39
  call void @extraProfileUpdateTopLevel(ptr noundef %60, i32 noundef %70, ptr noundef %74)
  br label %26, !llvm.loop !62

75:                                               ; preds = %32
  %76 = load ptr, ptr %11, align 8, !tbaa !41
  call void @st__free_table(ptr noundef %76)
  %77 = load ptr, ptr %5, align 8, !tbaa !3
  %78 = getelementptr inbounds nuw %struct.DdManager, ptr %77, i32 0, i32 16
  %79 = load i32, ptr %78, align 4, !tbaa !63
  %80 = load ptr, ptr %5, align 8, !tbaa !3
  %81 = getelementptr inbounds nuw %struct.DdManager, ptr %80, i32 0, i32 15
  %82 = load i32, ptr %81, align 8, !tbaa !64
  %83 = icmp sgt i32 %79, %82
  br i1 %83, label %84, label %88

84:                                               ; preds = %75
  %85 = load ptr, ptr %5, align 8, !tbaa !3
  %86 = getelementptr inbounds nuw %struct.DdManager, ptr %85, i32 0, i32 16
  %87 = load i32, ptr %86, align 4, !tbaa !63
  br label %92

88:                                               ; preds = %75
  %89 = load ptr, ptr %5, align 8, !tbaa !3
  %90 = getelementptr inbounds nuw %struct.DdManager, ptr %89, i32 0, i32 15
  %91 = load i32, ptr %90, align 8, !tbaa !64
  br label %92

92:                                               ; preds = %88, %84
  %93 = phi i32 [ %87, %84 ], [ %91, %88 ]
  %94 = add nsw i32 %93, 1
  store i32 %94, ptr %17, align 4, !tbaa !10
  store i32 0, ptr %16, align 4, !tbaa !10
  br label %95

95:                                               ; preds = %104, %92
  %96 = load i32, ptr %16, align 4, !tbaa !10
  %97 = load i32, ptr %17, align 4, !tbaa !10
  %98 = icmp slt i32 %96, %97
  br i1 %98, label %99, label %107

99:                                               ; preds = %95
  %100 = load ptr, ptr %7, align 8, !tbaa !31
  %101 = load i32, ptr %16, align 4, !tbaa !10
  %102 = sext i32 %101 to i64
  %103 = getelementptr inbounds i32, ptr %100, i64 %102
  store i32 0, ptr %103, align 4, !tbaa !10
  br label %104

104:                                              ; preds = %99
  %105 = load i32, ptr %16, align 4, !tbaa !10
  %106 = add nsw i32 %105, 1
  store i32 %106, ptr %16, align 4, !tbaa !10
  br label %95, !llvm.loop !65

107:                                              ; preds = %95
  %108 = load ptr, ptr %10, align 8, !tbaa !41
  %109 = call ptr @st__init_gen(ptr noundef %108)
  store ptr %109, ptr %9, align 8, !tbaa !43
  br label %110

110:                                              ; preds = %158, %107
  %111 = load ptr, ptr %9, align 8, !tbaa !43
  %112 = call i32 @st__gen(ptr noundef %111, ptr noundef %12, ptr noundef %14)
  %113 = icmp ne i32 %112, 0
  br i1 %113, label %116, label %114

114:                                              ; preds = %110
  %115 = load ptr, ptr %9, align 8, !tbaa !43
  call void @st__free_gen(ptr noundef %115)
  br label %116

116:                                              ; preds = %114, %110
  %117 = phi i1 [ true, %110 ], [ false, %114 ]
  br i1 %117, label %118, label %159

118:                                              ; preds = %116
  %119 = load ptr, ptr %12, align 8, !tbaa !28
  %120 = ptrtoint ptr %119 to i64
  %121 = and i64 %120, -2
  %122 = inttoptr i64 %121 to ptr
  store ptr %122, ptr %13, align 8, !tbaa !28
  %123 = load ptr, ptr %13, align 8, !tbaa !28
  %124 = getelementptr inbounds nuw %struct.DdNode, ptr %123, i32 0, i32 0
  %125 = load i32, ptr %124, align 8, !tbaa !33
  %126 = icmp eq i32 %125, 2147483647
  br i1 %126, label %127, label %131

127:                                              ; preds = %118
  %128 = load ptr, ptr %5, align 8, !tbaa !3
  %129 = getelementptr inbounds nuw %struct.DdManager, ptr %128, i32 0, i32 15
  %130 = load i32, ptr %129, align 8, !tbaa !64
  br label %141

131:                                              ; preds = %118
  %132 = load ptr, ptr %5, align 8, !tbaa !3
  %133 = getelementptr inbounds nuw %struct.DdManager, ptr %132, i32 0, i32 37
  %134 = load ptr, ptr %133, align 8, !tbaa !56
  %135 = load ptr, ptr %13, align 8, !tbaa !28
  %136 = getelementptr inbounds nuw %struct.DdNode, ptr %135, i32 0, i32 0
  %137 = load i32, ptr %136, align 8, !tbaa !33
  %138 = zext i32 %137 to i64
  %139 = getelementptr inbounds nuw i32, ptr %134, i64 %138
  %140 = load i32, ptr %139, align 4, !tbaa !10
  br label %141

141:                                              ; preds = %131, %127
  %142 = phi i32 [ %130, %127 ], [ %140, %131 ]
  store i32 %142, ptr %15, align 4, !tbaa !10
  %143 = load i32, ptr %14, align 4, !tbaa !10
  store i32 %143, ptr %16, align 4, !tbaa !10
  br label %144

144:                                              ; preds = %155, %141
  %145 = load i32, ptr %16, align 4, !tbaa !10
  %146 = load i32, ptr %15, align 4, !tbaa !10
  %147 = icmp sle i32 %145, %146
  br i1 %147, label %148, label %158

148:                                              ; preds = %144
  %149 = load ptr, ptr %7, align 8, !tbaa !31
  %150 = load i32, ptr %16, align 4, !tbaa !10
  %151 = sext i32 %150 to i64
  %152 = getelementptr inbounds i32, ptr %149, i64 %151
  %153 = load i32, ptr %152, align 4, !tbaa !10
  %154 = add nsw i32 %153, 1
  store i32 %154, ptr %152, align 4, !tbaa !10
  br label %155

155:                                              ; preds = %148
  %156 = load i32, ptr %16, align 4, !tbaa !10
  %157 = add nsw i32 %156, 1
  store i32 %157, ptr %16, align 4, !tbaa !10
  br label %144, !llvm.loop !66

158:                                              ; preds = %144
  br label %110, !llvm.loop !67

159:                                              ; preds = %116
  %160 = load i32, ptr %8, align 4, !tbaa !10
  %161 = icmp ne i32 %160, -1
  br i1 %161, label %162, label %167

162:                                              ; preds = %159
  %163 = load i32, ptr %8, align 4, !tbaa !10
  %164 = icmp ne i32 %163, 0
  br i1 %164, label %165, label %167

165:                                              ; preds = %162
  %166 = load i32, ptr %8, align 4, !tbaa !10
  store i32 %166, ptr %17, align 4, !tbaa !10
  br label %167

167:                                              ; preds = %165, %162, %159
  store i32 0, ptr %18, align 4, !tbaa !10
  store i32 0, ptr %16, align 4, !tbaa !10
  br label %168

168:                                              ; preds = %187, %167
  %169 = load i32, ptr %16, align 4, !tbaa !10
  %170 = load i32, ptr %17, align 4, !tbaa !10
  %171 = icmp slt i32 %169, %170
  br i1 %171, label %172, label %190

172:                                              ; preds = %168
  %173 = load i32, ptr %18, align 4, !tbaa !10
  %174 = load ptr, ptr %7, align 8, !tbaa !31
  %175 = load i32, ptr %16, align 4, !tbaa !10
  %176 = sext i32 %175 to i64
  %177 = getelementptr inbounds i32, ptr %174, i64 %176
  %178 = load i32, ptr %177, align 4, !tbaa !10
  %179 = icmp slt i32 %173, %178
  br i1 %179, label %180, label %186

180:                                              ; preds = %172
  %181 = load ptr, ptr %7, align 8, !tbaa !31
  %182 = load i32, ptr %16, align 4, !tbaa !10
  %183 = sext i32 %182 to i64
  %184 = getelementptr inbounds i32, ptr %181, i64 %183
  %185 = load i32, ptr %184, align 4, !tbaa !10
  store i32 %185, ptr %18, align 4, !tbaa !10
  br label %186

186:                                              ; preds = %180, %172
  br label %187

187:                                              ; preds = %186
  %188 = load i32, ptr %16, align 4, !tbaa !10
  %189 = add nsw i32 %188, 1
  store i32 %189, ptr %16, align 4, !tbaa !10
  br label %168, !llvm.loop !68

190:                                              ; preds = %168
  %191 = load ptr, ptr %10, align 8, !tbaa !41
  call void @st__free_table(ptr noundef %191)
  %192 = load i32, ptr %18, align 4, !tbaa !10
  call void @llvm.lifetime.end.p0(i64 4, ptr %18) #6
  call void @llvm.lifetime.end.p0(i64 4, ptr %17) #6
  call void @llvm.lifetime.end.p0(i64 4, ptr %16) #6
  call void @llvm.lifetime.end.p0(i64 4, ptr %15) #6
  call void @llvm.lifetime.end.p0(i64 4, ptr %14) #6
  call void @llvm.lifetime.end.p0(i64 8, ptr %13) #6
  call void @llvm.lifetime.end.p0(i64 8, ptr %12) #6
  call void @llvm.lifetime.end.p0(i64 8, ptr %11) #6
  call void @llvm.lifetime.end.p0(i64 8, ptr %10) #6
  call void @llvm.lifetime.end.p0(i64 8, ptr %9) #6
  ret i32 %192
}