; Function Attrs: nounwind uwtable
define range(i32 0, -2147483648) i32 @Extra_ProfileWidth(ptr noundef readonly captures(none) %0, ptr noundef %1, ptr noundef captures(none) %2, i32 noundef %3) local_unnamed_addr #0 {
  %5 = alloca ptr, align 8
  %6 = alloca ptr, align 8
  %7 = alloca ptr, align 8
  %8 = alloca ptr, align 8
  %9 = alloca i32, align 4
  call void @llvm.lifetime.start.p0(i64 8, ptr nonnull %8) #11
  call void @llvm.lifetime.start.p0(i64 4, ptr nonnull %9) #11
  %10 = tail call ptr @st__init_table(ptr noundef nonnull @st__ptrcmp, ptr noundef nonnull @st__ptrhash) #11
  call void @llvm.lifetime.start.p0(i64 8, ptr nonnull %7) #11
  %11 = call i32 @st__find_or_add(ptr noundef %10, ptr noundef %1, ptr noundef nonnull %7) #11
  %.not.i = icmp eq i32 %11, 0
  %12 = load ptr, ptr %7, align 8, !tbaa !53
  br i1 %.not.i, label %.sink.split.i, label %13

13:                                               ; preds = %4
  %14 = load i32, ptr %12, align 4, !tbaa !29
  %15 = icmp sgt i32 %14, 0
  br i1 %15, label %.sink.split.i, label %extraProfileUpdateTopLevel.exit

.sink.split.i:                                    ; preds = %13, %4
  store i32 0, ptr %12, align 4, !tbaa !29
  br label %extraProfileUpdateTopLevel.exit

extraProfileUpdateTopLevel.exit:                  ; preds = %13, %.sink.split.i
  call void @llvm.lifetime.end.p0(i64 8, ptr nonnull %7) #11
  %16 = call ptr @st__init_table(ptr noundef nonnull @st__ptrcmp, ptr noundef nonnull @st__ptrhash) #11
  call void @extraCollectNodes(ptr noundef %1, ptr noundef %16)
  %17 = call ptr @st__init_gen(ptr noundef %16) #11
  %18 = call i32 @st__gen(ptr noundef %17, ptr noundef nonnull %8, ptr noundef null) #11
  %.not69 = icmp eq i32 %18, 0
  br i1 %.not69, label %._crit_edge, label %.critedge.lr.ph

.critedge.lr.ph:                                  ; preds = %extraProfileUpdateTopLevel.exit
  %19 = getelementptr inbounds nuw i8, ptr %0, i64 312
  br label %.critedge

._crit_edge:                                      ; preds = %.backedge, %extraProfileUpdateTopLevel.exit
  call void @st__free_gen(ptr noundef %17) #11
  call void @st__free_table(ptr noundef %16) #11
  %20 = getelementptr inbounds nuw i8, ptr %0, i64 140
  %21 = load i32, ptr %20, align 4, !tbaa !54
  %22 = getelementptr inbounds nuw i8, ptr %0, i64 136
  %23 = load i32, ptr %22, align 8, !tbaa !55
  %. = call i32 @llvm.smax.i32(i32 %21, i32 %23)
  %24 = add i32 %., 1
  %.not5970 = icmp slt i32 %., 0
  br i1 %.not5970, label %._crit_edge73, label %.lr.ph.preheader

.lr.ph.preheader:                                 ; preds = %._crit_edge
  %25 = zext i32 %24 to i64
  %26 = shl nuw nsw i64 %25, 2
  call void @llvm.memset.p0.i64(ptr align 4 %2, i8 0, i64 %26, i1 false), !tbaa !29
  br label %._crit_edge73

.critedge:                                        ; preds = %.critedge.lr.ph, %.backedge
  %27 = load ptr, ptr %8, align 8, !tbaa !24
  %28 = ptrtoint ptr %27 to i64
  %29 = and i64 %28, -2
  %30 = inttoptr i64 %29 to ptr
  %31 = load i32, ptr %30, align 8, !tbaa !28
  %32 = icmp eq i32 %31, 2147483647
  br i1 %32, label %.backedge, label %33

33:                                               ; preds = %.critedge
  %34 = load ptr, ptr %19, align 8, !tbaa !47
  %35 = load i32, ptr %27, align 8, !tbaa !28
  %36 = zext i32 %35 to i64
  %37 = getelementptr inbounds nuw i32, ptr %34, i64 %36
  %38 = load i32, ptr %37, align 4, !tbaa !29
  %39 = add nsw i32 %38, 1
  %40 = getelementptr inbounds nuw i8, ptr %30, i64 16
  %41 = getelementptr inbounds nuw i8, ptr %30, i64 24
  %42 = load ptr, ptr %41, align 8, !tbaa !34
  call void @llvm.lifetime.start.p0(i64 8, ptr nonnull %6) #11
  %43 = call i32 @st__find_or_add(ptr noundef %10, ptr noundef %42, ptr noundef nonnull %6) #11
  %.not.i63 = icmp eq i32 %43, 0
  %44 = load ptr, ptr %6, align 8, !tbaa !53
  br i1 %.not.i63, label %.sink.split.i64, label %45

45:                                               ; preds = %33
  %46 = load i32, ptr %44, align 4, !tbaa !29
  %47 = icmp sgt i32 %46, %39
  br i1 %47, label %.sink.split.i64, label %extraProfileUpdateTopLevel.exit65

.sink.split.i64:                                  ; preds = %45, %33
  store i32 %39, ptr %44, align 4, !tbaa !29
  br label %extraProfileUpdateTopLevel.exit65

extraProfileUpdateTopLevel.exit65:                ; preds = %45, %.sink.split.i64
  call void @llvm.lifetime.end.p0(i64 8, ptr nonnull %6) #11
  %48 = load ptr, ptr %19, align 8, !tbaa !47
  %49 = load ptr, ptr %8, align 8, !tbaa !24
  %50 = load i32, ptr %49, align 8, !tbaa !28
  %51 = zext i32 %50 to i64
  %52 = getelementptr inbounds nuw i32, ptr %48, i64 %51
  %53 = load i32, ptr %52, align 4, !tbaa !29
  %54 = add nsw i32 %53, 1
  %55 = load ptr, ptr %40, align 8, !tbaa !34
  call void @llvm.lifetime.start.p0(i64 8, ptr nonnull %5) #11
  %56 = call i32 @st__find_or_add(ptr noundef %10, ptr noundef %55, ptr noundef nonnull %5) #11
  %.not.i66 = icmp eq i32 %56, 0
  %57 = load ptr, ptr %5, align 8, !tbaa !53
  br i1 %.not.i66, label %.sink.split.i67, label %58

58:                                               ; preds = %extraProfileUpdateTopLevel.exit65
  %59 = load i32, ptr %57, align 4, !tbaa !29
  %60 = icmp sgt i32 %59, %54
  br i1 %60, label %.sink.split.i67, label %extraProfileUpdateTopLevel.exit68

.sink.split.i67:                                  ; preds = %58, %extraProfileUpdateTopLevel.exit65
  store i32 %54, ptr %57, align 4, !tbaa !29
  br label %extraProfileUpdateTopLevel.exit68

extraProfileUpdateTopLevel.exit68:                ; preds = %58, %.sink.split.i67
  call void @llvm.lifetime.end.p0(i64 8, ptr nonnull %5) #11
  br label %.backedge

.backedge:                                        ; preds = %extraProfileUpdateTopLevel.exit68, %.critedge
  %61 = call i32 @st__gen(ptr noundef %17, ptr noundef nonnull %8, ptr noundef null) #11
  %.not = icmp eq i32 %61, 0
  br i1 %.not, label %._crit_edge, label %.critedge, !llvm.loop !56

._crit_edge73:                                    ; preds = %.lr.ph.preheader, %._crit_edge
  %62 = call ptr @st__init_gen(ptr noundef %10) #11
  %63 = call i32 @st__gen(ptr noundef %62, ptr noundef nonnull %8, ptr noundef nonnull %9) #11
  %.not6078 = icmp eq i32 %63, 0
  br i1 %.not6078, label %._crit_edge79, label %.critedge2.lr.ph

.critedge2.lr.ph:                                 ; preds = %._crit_edge73
  %64 = getelementptr inbounds nuw i8, ptr %0, i64 312
  br label %.critedge2

.loopexit:                                        ; preds = %.lr.ph77, %78
  %65 = call i32 @st__gen(ptr noundef %62, ptr noundef nonnull %8, ptr noundef nonnull %9) #11
  %.not60 = icmp eq i32 %65, 0
  br i1 %.not60, label %._crit_edge79, label %.critedge2, !llvm.loop !57

._crit_edge79:                                    ; preds = %.loopexit, %._crit_edge73
  call void @st__free_gen(ptr noundef %62) #11
  %66 = add i32 %3, -1
  %or.cond = icmp ult i32 %66, -2
  %spec.select = select i1 %or.cond, i32 %3, i32 %24
  %67 = icmp sgt i32 %spec.select, 0
  br i1 %67, label %.lr.ph83.preheader, label %._crit_edge84

.lr.ph83.preheader:                               ; preds = %._crit_edge79
  %wide.trip.count = zext nneg i32 %spec.select to i64
  br label %.lr.ph83

.critedge2:                                       ; preds = %.critedge2.lr.ph, %.loopexit
  %68 = load ptr, ptr %8, align 8, !tbaa !24
  %69 = ptrtoint ptr %68 to i64
  %70 = and i64 %69, -2
  %71 = inttoptr i64 %70 to ptr
  %72 = load i32, ptr %71, align 8, !tbaa !28
  %73 = icmp eq i32 %72, 2147483647
  br i1 %73, label %78, label %74

74:                                               ; preds = %.critedge2
  %75 = load ptr, ptr %64, align 8, !tbaa !47
  %76 = zext i32 %72 to i64
  %77 = getelementptr inbounds nuw i32, ptr %75, i64 %76
  br label %78

78:                                               ; preds = %.critedge2, %74
  %.in = phi ptr [ %77, %74 ], [ %22, %.critedge2 ]
  %79 = load i32, ptr %.in, align 4, !tbaa !29
  %80 = load i32, ptr %9, align 4, !tbaa !29
  %.not6174 = icmp sgt i32 %80, %79
  br i1 %.not6174, label %.loopexit, label %.lr.ph77.preheader

.lr.ph77.preheader:                               ; preds = %78
  %81 = sext i32 %80 to i64
  %82 = add i32 %79, 1
  br label %.lr.ph77

.lr.ph77:                                         ; preds = %.lr.ph77.preheader, %.lr.ph77
  %indvars.iv = phi i64 [ %81, %.lr.ph77.preheader ], [ %indvars.iv.next, %.lr.ph77 ]
  %83 = getelementptr inbounds i32, ptr %2, i64 %indvars.iv
  %84 = load i32, ptr %83, align 4, !tbaa !29
  %85 = add nsw i32 %84, 1
  store i32 %85, ptr %83, align 4, !tbaa !29
  %indvars.iv.next = add nsw i64 %indvars.iv, 1
  %lftr.wideiv = trunc i64 %indvars.iv.next to i32
  %exitcond.not = icmp eq i32 %82, %lftr.wideiv
  br i1 %exitcond.not, label %.loopexit, label %.lr.ph77, !llvm.loop !58

.lr.ph83:                                         ; preds = %.lr.ph83.preheader, %.lr.ph83
  %indvars.iv87 = phi i64 [ 0, %.lr.ph83.preheader ], [ %indvars.iv.next88, %.lr.ph83 ]
  %.081 = phi i32 [ 0, %.lr.ph83.preheader ], [ %spec.select62, %.lr.ph83 ]
  %86 = getelementptr inbounds nuw i32, ptr %2, i64 %indvars.iv87
  %87 = load i32, ptr %86, align 4, !tbaa !29
  %spec.select62 = call i32 @llvm.smax.i32(i32 %.081, i32 %87)
  %indvars.iv.next88 = add nuw nsw i64 %indvars.iv87, 1
  %exitcond90.not = icmp eq i64 %indvars.iv.next88, %wide.trip.count
  br i1 %exitcond90.not, label %._crit_edge84, label %.lr.ph83, !llvm.loop !59

._crit_edge84:                                    ; preds = %.lr.ph83, %._crit_edge79
  %.0.lcssa = phi i32 [ 0, %._crit_edge79 ], [ %spec.select62, %.lr.ph83 ]
  call void @st__free_table(ptr noundef %10) #11
  call void @llvm.lifetime.end.p0(i64 4, ptr nonnull %9) #11
  call void @llvm.lifetime.end.p0(i64 8, ptr nonnull %8) #11
  ret i32 %.0.lcssa
}